; Function Attrs: mustprogress nofree norecurse nosync nounwind willreturn memory(argmem: readwrite) uwtable
define noundef range(i64 -2147483648, 2147483648) i64 @_ZN3net10CubicBytes31CongestionWindowAfterPacketLossEm(ptr noundef nonnull align 8 captures(none) dereferenceable(88) initializes((16, 24)) %0, i64 noundef %1) local_unnamed_addr #2 align 2 {
  %3 = getelementptr inbounds nuw i8, ptr %0, i64 40
  %4 = load i64, ptr %3, align 8, !tbaa !15
  %5 = icmp ult i64 %1, %4
  %6 = uitofp i64 %1 to float
  %7 = fmul float %6, 0x3FEB333340000000
  %8 = fptosi float %7 to i32
  %9 = sext i32 %8 to i64
  %storemerge = select i1 %5, i64 %9, i64 %1
  store i64 %storemerge, ptr %3, align 8, !tbaa !15
  %10 = getelementptr inbounds nuw i8, ptr %0, i64 16
  store i64 0, ptr %10, align 8, !tbaa !14
  %11 = getelementptr inbounds nuw i8, ptr %0, i64 8
  %12 = load i32, ptr %11, align 8, !tbaa !12
  %13 = add nsw i32 %12, -1
  %14 = sitofp i32 %13 to float
  %15 = fadd float %14, 0x3FE6666660000000
  %16 = sitofp i32 %12 to float
  %17 = fdiv float %15, %16
  %18 = fmul float %17, %6
  %19 = fptosi float %18 to i32
  %20 = sext i32 %19 to i64
  ret i64 %20
}